target datalayout = "e-m:e-p270:32:32-p271:32:32-p272:64:64-i64:64-i128:128-f80:128-n8:16:32:64-S128"
target triple = "x86_64-pc-linux-gnu"

%struct.interface_stats_t = type { ptr, ptr, ptr, ptr, ptr, i64, i64, i64, i64, i64, i64, i64, i64 }

@plugin_type = dso_local constant [31 x i8] c"acct_gather_interconnect/sysfs\00", align 16
@interfaces = internal global ptr null, align 8
@sysfs_interfaces = internal global ptr null, align 8
@.str.4 = private unnamed_addr constant [16 x i8] c"SysfsInterfaces\00", align 1
@.str.5 = private unnamed_addr constant [34 x i8] c"%s: %s: no interfaces set to poll\00", align 1
@__func__.acct_gather_interconnect_p_conf_set = private unnamed_addr constant [36 x i8] c"acct_gather_interconnect_p_conf_set\00", align 1
@.str.6 = private unnamed_addr constant [2 x i8] c",\00", align 1
@.str.7 = private unnamed_addr constant [33 x i8] c"acct_gather_interconnect_sysfs.c\00", align 1
@.str.8 = private unnamed_addr constant [38 x i8] c"/sys/class/net/%s/statistics/rx_bytes\00", align 1
@.str.9 = private unnamed_addr constant [38 x i8] c"/sys/class/net/%s/statistics/tx_bytes\00", align 1
@.str.10 = private unnamed_addr constant [40 x i8] c"/sys/class/net/%s/statistics/rx_packets\00", align 1
@.str.11 = private unnamed_addr constant [40 x i8] c"/sys/class/net/%s/statistics/tx_packets\00", align 1

; Function Attrs: nounwind uwtable
define dso_local void @acct_gather_interconnect_p_conf_set(ptr noundef %0) #0 {
  %2 = alloca ptr, align 8
  %3 = alloca ptr, align 8
  %4 = alloca ptr, align 8
  %5 = alloca ptr, align 8
  %6 = alloca ptr, align 8
  %7 = alloca i32, align 4
  %8 = alloca ptr, align 8
  store ptr %0, ptr %2, align 8
  call void @llvm.lifetime.start.p0(i64 8, ptr %3) #6
  call void @llvm.lifetime.start.p0(i64 8, ptr %4) #6
  call void @llvm.lifetime.start.p0(i64 8, ptr %5) #6
  call void @llvm.lifetime.start.p0(i64 8, ptr %6) #6
  store ptr null, ptr %6, align 8
  %9 = load ptr, ptr %2, align 8
  %10 = icmp ne ptr %9, null
  br i1 %10, label %12, label %11

11:                                               ; preds = %1
  store i32 1, ptr %7, align 4
  br label %86

12:                                               ; preds = %1
  %13 = load ptr, ptr %2, align 8
  %14 = call i32 @slurm_s_p_get_string(ptr noundef @sysfs_interfaces, ptr noundef @.str.4, ptr noundef %13)
  %15 = icmp ne i32 %14, 0
  br i1 %15, label %27, label %16

16:                                               ; preds = %12
  br label %17

17:                                               ; preds = %16
  br label %18

18:                                               ; preds = %17
  %19 = call i32 @slurm_get_log_level()
  %20 = icmp sge i32 %19, 5
  br i1 %20, label %21, label %22

21:                                               ; preds = %18
  call void (i32, ptr, ...) @slurm_log_var(i32 noundef 5, ptr noundef @.str.5, ptr noundef @plugin_type, ptr noundef @__func__.acct_gather_interconnect_p_conf_set)
  br label %22

22:                                               ; preds = %21, %18
  br label %23

23:                                               ; preds = %22
  br label %24

24:                                               ; preds = %23
  br label %25

25:                                               ; preds = %24
  br label %26

26:                                               ; preds = %25
  store i32 1, ptr %7, align 4
  br label %86

27:                                               ; preds = %12
  %28 = call zeroext i1 @slurm_running_in_slurmstepd()
  br i1 %28, label %30, label %29

29:                                               ; preds = %27
  store i32 1, ptr %7, align 4
  br label %86

30:                                               ; preds = %27
  %31 = load ptr, ptr @sysfs_interfaces, align 8
  %32 = call ptr @slurm_xstrdup(ptr noundef %31)
  store ptr %32, ptr %4, align 8
  store ptr %32, ptr %3, align 8
  br label %33

33:                                               ; preds = %37, %30
  %34 = load ptr, ptr %4, align 8
  %35 = call ptr @strtok_r(ptr noundef %34, ptr noundef @.str.6, ptr noundef %6) #6
  store ptr %35, ptr %5, align 8
  %36 = icmp ne ptr %35, null
  br i1 %36, label %37, label %85

37:                                               ; preds = %33
  call void @llvm.lifetime.start.p0(i64 8, ptr %8) #6
  %38 = call ptr @slurm_xcalloc(i64 noundef 1, i64 noundef 104, i1 noundef zeroext true, i1 noundef zeroext false, ptr noundef @.str.7, i32 noundef 270, ptr noundef @__func__.acct_gather_interconnect_p_conf_set)
  store ptr %38, ptr %8, align 8
  %39 = load ptr, ptr %5, align 8
  %40 = call ptr @slurm_xstrdup(ptr noundef %39)
  %41 = load ptr, ptr %8, align 8
  %42 = getelementptr inbounds nuw %struct.interface_stats_t, ptr %41, i32 0, i32 0
  store ptr %40, ptr %42, align 8
  %43 = load ptr, ptr %5, align 8
  %44 = call ptr (ptr, ...) @slurm_xstrdup_printf(ptr noundef @.str.8, ptr noundef %43)
  %45 = load ptr, ptr %8, align 8
  %46 = getelementptr inbounds nuw %struct.interface_stats_t, ptr %45, i32 0, i32 1
  store ptr %44, ptr %46, align 8
  %47 = load ptr, ptr %5, align 8
  %48 = call ptr (ptr, ...) @slurm_xstrdup_printf(ptr noundef @.str.9, ptr noundef %47)
  %49 = load ptr, ptr %8, align 8
  %50 = getelementptr inbounds nuw %struct.interface_stats_t, ptr %49, i32 0, i32 2
  store ptr %48, ptr %50, align 8
  %51 = load ptr, ptr %5, align 8
  %52 = call ptr (ptr, ...) @slurm_xstrdup_printf(ptr noundef @.str.10, ptr noundef %51)
  %53 = load ptr, ptr %8, align 8
  %54 = getelementptr inbounds nuw %struct.interface_stats_t, ptr %53, i32 0, i32 3
  store ptr %52, ptr %54, align 8
  %55 = load ptr, ptr %5, align 8
  %56 = call ptr (ptr, ...) @slurm_xstrdup_printf(ptr noundef @.str.11, ptr noundef %55)
  %57 = load ptr, ptr %8, align 8
  %58 = getelementptr inbounds nuw %struct.interface_stats_t, ptr %57, i32 0, i32 4
  store ptr %56, ptr %58, align 8
  %59 = load ptr, ptr %8, align 8
  %60 = getelementptr inbounds nuw %struct.interface_stats_t, ptr %59, i32 0, i32 1
  %61 = load ptr, ptr %60, align 8
  %62 = call i64 @_load(ptr noundef %61, i64 noundef 0)
  %63 = load ptr, ptr %8, align 8
  %64 = getelementptr inbounds nuw %struct.interface_stats_t, ptr %63, i32 0, i32 5
  store i64 %62, ptr %64, align 8
  %65 = load ptr, ptr %8, align 8
  %66 = getelementptr inbounds nuw %struct.interface_stats_t, ptr %65, i32 0, i32 2
  %67 = load ptr, ptr %66, align 8
  %68 = call i64 @_load(ptr noundef %67, i64 noundef 0)
  %69 = load ptr, ptr %8, align 8
  %70 = getelementptr inbounds nuw %struct.interface_stats_t, ptr %69, i32 0, i32 6
  store i64 %68, ptr %70, align 8
  %71 = load ptr, ptr %8, align 8
  %72 = getelementptr inbounds nuw %struct.interface_stats_t, ptr %71, i32 0, i32 3
  %73 = load ptr, ptr %72, align 8
  %74 = call i64 @_load(ptr noundef %73, i64 noundef 0)
  %75 = load ptr, ptr %8, align 8
  %76 = getelementptr inbounds nuw %struct.interface_stats_t, ptr %75, i32 0, i32 7
  store i64 %74, ptr %76, align 8
  %77 = load ptr, ptr %8, align 8
  %78 = getelementptr inbounds nuw %struct.interface_stats_t, ptr %77, i32 0, i32 4
  %79 = load ptr, ptr %78, align 8
  %80 = call i64 @_load(ptr noundef %79, i64 noundef 0)
  %81 = load ptr, ptr %8, align 8
  %82 = getelementptr inbounds nuw %struct.interface_stats_t, ptr %81, i32 0, i32 8
  store i64 %80, ptr %82, align 8
  %83 = load ptr, ptr @interfaces, align 8
  %84 = load ptr, ptr %8, align 8
  call void @slurm_list_push(ptr noundef %83, ptr noundef %84)
  store ptr null, ptr %4, align 8
  call void @llvm.lifetime.end.p0(i64 8, ptr %8) #6
  br label %33, !llvm.loop !8

85:                                               ; preds = %33
  call void @slurm_xfree(ptr noundef %3)
  store i32 0, ptr %7, align 4
  br label %86

86:                                               ; preds = %85, %29, %26, %11
  call void @llvm.lifetime.end.p0(i64 8, ptr %6) #6
  call void @llvm.lifetime.end.p0(i64 8, ptr %5) #6
  call void @llvm.lifetime.end.p0(i64 8, ptr %4) #6
  call void @llvm.lifetime.end.p0(i64 8, ptr %3) #6
  %87 = load i32, ptr %7, align 4
  switch i32 %87, label %89 [
    i32 0, label %88
    i32 1, label %88
  ]

88:                                               ; preds = %86, %86
  ret void

89:                                               ; preds = %86
  unreachable
}