; Function Attrs: nounwind uwtable
define dso_local void @acct_gather_interconnect_p_conf_set(ptr noundef %0) local_unnamed_addr #0 {
  %2 = alloca ptr, align 8
  %3 = alloca ptr, align 8
  call void @llvm.lifetime.start.p0(i64 8, ptr nonnull %2) #9
  call void @llvm.lifetime.start.p0(i64 8, ptr nonnull %3) #9
  store ptr null, ptr %3, align 8
  %.not = icmp eq ptr %0, null
  br i1 %.not, label %41, label %4

4:                                                ; preds = %1
  %5 = tail call i32 @slurm_s_p_get_string(ptr noundef nonnull @sysfs_interfaces, ptr noundef nonnull @.str.4, ptr noundef nonnull %0) #9
  %.not24 = icmp eq i32 %5, 0
  br i1 %.not24, label %6, label %10

6:                                                ; preds = %4
  %7 = tail call i32 @slurm_get_log_level() #9
  %8 = icmp sgt i32 %7, 4
  br i1 %8, label %9, label %41

9:                                                ; preds = %6
  tail call void (i32, ptr, ...) @slurm_log_var(i32 noundef 5, ptr noundef nonnull @.str.5, ptr noundef nonnull @plugin_type, ptr noundef nonnull @__func__.acct_gather_interconnect_p_conf_set) #9
  br label %41

10:                                               ; preds = %4
  %11 = tail call zeroext i1 @slurm_running_in_slurmstepd() #9
  br i1 %11, label %12, label %41

12:                                               ; preds = %10
  %13 = load ptr, ptr @sysfs_interfaces, align 8
  %14 = tail call ptr @slurm_xstrdup(ptr noundef %13) #9
  store ptr %14, ptr %2, align 8
  %15 = call ptr @strtok_r(ptr noundef %14, ptr noundef nonnull @.str.6, ptr noundef nonnull %3) #9
  %.not2526 = icmp eq ptr %15, null
  br i1 %.not2526, label %._crit_edge, label %.lr.ph

.lr.ph:                                           ; preds = %12, %.lr.ph
  %16 = phi ptr [ %40, %.lr.ph ], [ %15, %12 ]
  %17 = call ptr @slurm_xcalloc(i64 noundef 1, i64 noundef 104, i1 noundef zeroext true, i1 noundef zeroext false, ptr noundef nonnull @.str.7, i32 noundef 270, ptr noundef nonnull @__func__.acct_gather_interconnect_p_conf_set) #9
  %18 = call ptr @slurm_xstrdup(ptr noundef nonnull %16) #9
  store ptr %18, ptr %17, align 8
  %19 = call ptr (ptr, ...) @slurm_xstrdup_printf(ptr noundef nonnull @.str.8, ptr noundef nonnull %16) #9
  %20 = getelementptr inbounds nuw i8, ptr %17, i64 8
  store ptr %19, ptr %20, align 8
  %21 = call ptr (ptr, ...) @slurm_xstrdup_printf(ptr noundef nonnull @.str.9, ptr noundef nonnull %16) #9
  %22 = getelementptr inbounds nuw i8, ptr %17, i64 16
  store ptr %21, ptr %22, align 8
  %23 = call ptr (ptr, ...) @slurm_xstrdup_printf(ptr noundef nonnull @.str.10, ptr noundef nonnull %16) #9
  %24 = getelementptr inbounds nuw i8, ptr %17, i64 24
  store ptr %23, ptr %24, align 8
  %25 = call ptr (ptr, ...) @slurm_xstrdup_printf(ptr noundef nonnull @.str.11, ptr noundef nonnull %16) #9
  %26 = getelementptr inbounds nuw i8, ptr %17, i64 32
  store ptr %25, ptr %26, align 8
  %27 = load ptr, ptr %20, align 8
  %28 = call fastcc i64 @_load(ptr noundef %27, i64 noundef 0)
  %29 = getelementptr inbounds nuw i8, ptr %17, i64 40
  store i64 %28, ptr %29, align 8
  %30 = load ptr, ptr %22, align 8
  %31 = call fastcc i64 @_load(ptr noundef %30, i64 noundef 0)
  %32 = getelementptr inbounds nuw i8, ptr %17, i64 48
  store i64 %31, ptr %32, align 8
  %33 = load ptr, ptr %24, align 8
  %34 = call fastcc i64 @_load(ptr noundef %33, i64 noundef 0)
  %35 = getelementptr inbounds nuw i8, ptr %17, i64 56
  store i64 %34, ptr %35, align 8
  %36 = load ptr, ptr %26, align 8
  %37 = call fastcc i64 @_load(ptr noundef %36, i64 noundef 0)
  %38 = getelementptr inbounds nuw i8, ptr %17, i64 64
  store i64 %37, ptr %38, align 8
  %39 = load ptr, ptr @interfaces, align 8
  call void @slurm_list_push(ptr noundef %39, ptr noundef nonnull %17) #9
  %40 = call ptr @strtok_r(ptr noundef null, ptr noundef nonnull @.str.6, ptr noundef nonnull %3) #9
  %.not25 = icmp eq ptr %40, null
  br i1 %.not25, label %._crit_edge, label %.lr.ph, !llvm.loop !8

._crit_edge:                                      ; preds = %.lr.ph, %12
  call void @slurm_xfree(ptr noundef nonnull %2) #9
  br label %41

41:                                               ; preds = %10, %6, %9, %1, %._crit_edge
  call void @llvm.lifetime.end.p0(i64 8, ptr nonnull %3) #9
  call void @llvm.lifetime.end.p0(i64 8, ptr nonnull %2) #9
  ret void
}